target datalayout = "e-m:e-p270:32:32-p271:32:32-p272:64:64-i64:64-i128:128-f80:128-n8:16:32:64-S128"
target triple = "x86_64-pc-linux-gnu"

%struct.VP8LHistogram = type { ptr, [256 x i32], [256 x i32], [256 x i32], [40 x i32], i32, i32, i64, i64, i64, i64, [5 x i8] }

@VP8LExtraCostCombined = external global ptr, align 8

; Function Attrs: inlinehint nounwind uwtable
define internal i32 @VP8LHistogramNumCodes(i32 noundef %0) #3 {
  %2 = alloca i32, align 4
  store i32 %0, ptr %2, align 4, !tbaa !14
  %3 = load i32, ptr %2, align 4, !tbaa !14
  %4 = icmp sgt i32 %3, 0
  br i1 %4, label %5, label %8

5:                                                ; preds = %1
  %6 = load i32, ptr %2, align 4, !tbaa !14
  %7 = shl i32 1, %6
  br label %9

8:                                                ; preds = %1
  br label %9

9:                                                ; preds = %8, %5
  %10 = phi i32 [ %7, %5 ], [ 0, %8 ]
  %11 = add nsw i32 280, %10
  ret i32 %11
}

; Function Attrs: nounwind uwtable
define internal i32 @GetCombinedHistogramEntropy(ptr noundef %0, ptr noundef %1, i64 noundef %2, ptr noundef %3) #0 {
  %5 = alloca i32, align 4
  %6 = alloca ptr, align 8
  %7 = alloca ptr, align 8
  %8 = alloca i64, align 8
  %9 = alloca ptr, align 8
  %10 = alloca i32, align 4
  %11 = alloca i32, align 4
  %12 = alloca i64, align 8
  %13 = alloca i32, align 4
  %14 = alloca i32, align 4
  %15 = alloca i32, align 4
  %16 = alloca i32, align 4
  store ptr %0, ptr %6, align 8, !tbaa !3
  store ptr %1, ptr %7, align 8, !tbaa !3
  store i64 %2, ptr %8, align 8, !tbaa !30
  store ptr %3, ptr %9, align 8, !tbaa !110
  call void @llvm.lifetime.start.p0(i64 4, ptr %10) #7
  %17 = load ptr, ptr %6, align 8, !tbaa !3
  %18 = getelementptr inbounds nuw %struct.VP8LHistogram, ptr %17, i32 0, i32 5
  %19 = load i32, ptr %18, align 8, !tbaa !21
  store i32 %19, ptr %10, align 4, !tbaa !14
  call void @llvm.lifetime.start.p0(i64 4, ptr %11) #7
  store i32 0, ptr %11, align 4, !tbaa !14
  call void @llvm.lifetime.start.p0(i64 8, ptr %12) #7
  %20 = load i64, ptr %8, align 8, !tbaa !30
  store i64 %20, ptr %12, align 8, !tbaa !30
  %21 = load i64, ptr %8, align 8, !tbaa !30
  %22 = icmp sle i64 %21, 0
  br i1 %22, label %23, label %24

23:                                               ; preds = %4
  store i32 0, ptr %5, align 4
  store i32 1, ptr %13, align 4
  br label %234

24:                                               ; preds = %4
  %25 = load ptr, ptr %6, align 8, !tbaa !3
  %26 = getelementptr inbounds nuw %struct.VP8LHistogram, ptr %25, i32 0, i32 0
  %27 = load ptr, ptr %26, align 8, !tbaa !16
  %28 = load ptr, ptr %7, align 8, !tbaa !3
  %29 = getelementptr inbounds nuw %struct.VP8LHistogram, ptr %28, i32 0, i32 0
  %30 = load ptr, ptr %29, align 8, !tbaa !16
  %31 = load i32, ptr %10, align 4, !tbaa !14
  %32 = call i32 @VP8LHistogramNumCodes(i32 noundef %31)
  %33 = load ptr, ptr %6, align 8, !tbaa !3
  %34 = getelementptr inbounds nuw %struct.VP8LHistogram, ptr %33, i32 0, i32 11
  %35 = getelementptr inbounds [5 x i8], ptr %34, i64 0, i64 0
  %36 = load i8, ptr %35, align 8, !tbaa !43
  %37 = zext i8 %36 to i32
  %38 = load ptr, ptr %7, align 8, !tbaa !3
  %39 = getelementptr inbounds nuw %struct.VP8LHistogram, ptr %38, i32 0, i32 11
  %40 = getelementptr inbounds [5 x i8], ptr %39, i64 0, i64 0
  %41 = load i8, ptr %40, align 8, !tbaa !43
  %42 = zext i8 %41 to i32
  %43 = call i64 @GetCombinedEntropy(ptr noundef %27, ptr noundef %30, i32 noundef %32, i32 noundef %37, i32 noundef %42, i32 noundef 0)
  %44 = load ptr, ptr %9, align 8, !tbaa !110
  store i64 %43, ptr %44, align 8, !tbaa !30
  %45 = load ptr, ptr @VP8LExtraCostCombined, align 8, !tbaa !3
  %46 = load ptr, ptr %6, align 8, !tbaa !3
  %47 = getelementptr inbounds nuw %struct.VP8LHistogram, ptr %46, i32 0, i32 0
  %48 = load ptr, ptr %47, align 8, !tbaa !16
  %49 = getelementptr inbounds i32, ptr %48, i64 256
  %50 = load ptr, ptr %7, align 8, !tbaa !3
  %51 = getelementptr inbounds nuw %struct.VP8LHistogram, ptr %50, i32 0, i32 0
  %52 = load ptr, ptr %51, align 8, !tbaa !16
  %53 = getelementptr inbounds i32, ptr %52, i64 256
  %54 = call i32 %45(ptr noundef %49, ptr noundef %53, i32 noundef 24)
  %55 = zext i32 %54 to i64
  %56 = shl i64 %55, 23
  %57 = load ptr, ptr %9, align 8, !tbaa !110
  %58 = load i64, ptr %57, align 8, !tbaa !30
  %59 = add i64 %58, %56
  store i64 %59, ptr %57, align 8, !tbaa !30
  %60 = load ptr, ptr %9, align 8, !tbaa !110
  %61 = load i64, ptr %60, align 8, !tbaa !30
  %62 = load i64, ptr %12, align 8, !tbaa !30
  %63 = icmp uge i64 %61, %62
  br i1 %63, label %64, label %65

64:                                               ; preds = %24
  store i32 0, ptr %5, align 4
  store i32 1, ptr %13, align 4
  br label %234

65:                                               ; preds = %24
  %66 = load ptr, ptr %6, align 8, !tbaa !3
  %67 = getelementptr inbounds nuw %struct.VP8LHistogram, ptr %66, i32 0, i32 6
  %68 = load i32, ptr %67, align 4, !tbaa !23
  %69 = icmp ne i32 %68, -1
  br i1 %69, label %70, label %113

70:                                               ; preds = %65
  %71 = load ptr, ptr %6, align 8, !tbaa !3
  %72 = getelementptr inbounds nuw %struct.VP8LHistogram, ptr %71, i32 0, i32 6
  %73 = load i32, ptr %72, align 4, !tbaa !23
  %74 = load ptr, ptr %7, align 8, !tbaa !3
  %75 = getelementptr inbounds nuw %struct.VP8LHistogram, ptr %74, i32 0, i32 6
  %76 = load i32, ptr %75, align 4, !tbaa !23
  %77 = icmp eq i32 %73, %76
  br i1 %77, label %78, label %113

78:                                               ; preds = %70
  call void @llvm.lifetime.start.p0(i64 4, ptr %14) #7
  %79 = load ptr, ptr %6, align 8, !tbaa !3
  %80 = getelementptr inbounds nuw %struct.VP8LHistogram, ptr %79, i32 0, i32 6
  %81 = load i32, ptr %80, align 4, !tbaa !23
  %82 = lshr i32 %81, 24
  %83 = and i32 %82, 255
  store i32 %83, ptr %14, align 4, !tbaa !14
  call void @llvm.lifetime.start.p0(i64 4, ptr %15) #7
  %84 = load ptr, ptr %6, align 8, !tbaa !3
  %85 = getelementptr inbounds nuw %struct.VP8LHistogram, ptr %84, i32 0, i32 6
  %86 = load i32, ptr %85, align 4, !tbaa !23
  %87 = lshr i32 %86, 16
  %88 = and i32 %87, 255
  store i32 %88, ptr %15, align 4, !tbaa !14
  call void @llvm.lifetime.start.p0(i64 4, ptr %16) #7
  %89 = load ptr, ptr %6, align 8, !tbaa !3
  %90 = getelementptr inbounds nuw %struct.VP8LHistogram, ptr %89, i32 0, i32 6
  %91 = load i32, ptr %90, align 4, !tbaa !23
  %92 = lshr i32 %91, 0
  %93 = and i32 %92, 255
  store i32 %93, ptr %16, align 4, !tbaa !14
  %94 = load i32, ptr %14, align 4, !tbaa !14
  %95 = icmp eq i32 %94, 0
  br i1 %95, label %99, label %96

96:                                               ; preds = %78
  %97 = load i32, ptr %14, align 4, !tbaa !14
  %98 = icmp eq i32 %97, 255
  br i1 %98, label %99, label %112

99:                                               ; preds = %96, %78
  %100 = load i32, ptr %15, align 4, !tbaa !14
  %101 = icmp eq i32 %100, 0
  br i1 %101, label %105, label %102

102:                                              ; preds = %99
  %103 = load i32, ptr %15, align 4, !tbaa !14
  %104 = icmp eq i32 %103, 255
  br i1 %104, label %105, label %112

105:                                              ; preds = %102, %99
  %106 = load i32, ptr %16, align 4, !tbaa !14
  %107 = icmp eq i32 %106, 0
  br i1 %107, label %111, label %108

108:                                              ; preds = %105
  %109 = load i32, ptr %16, align 4, !tbaa !14
  %110 = icmp eq i32 %109, 255
  br i1 %110, label %111, label %112

111:                                              ; preds = %108, %105
  store i32 1, ptr %11, align 4, !tbaa !14
  br label %112

112:                                              ; preds = %111, %108, %102, %96
  call void @llvm.lifetime.end.p0(i64 4, ptr %16) #7
  call void @llvm.lifetime.end.p0(i64 4, ptr %15) #7
  call void @llvm.lifetime.end.p0(i64 4, ptr %14) #7
  br label %113

113:                                              ; preds = %112, %70, %65
  %114 = load ptr, ptr %6, align 8, !tbaa !3
  %115 = getelementptr inbounds nuw %struct.VP8LHistogram, ptr %114, i32 0, i32 1
  %116 = getelementptr inbounds [256 x i32], ptr %115, i64 0, i64 0
  %117 = load ptr, ptr %7, align 8, !tbaa !3
  %118 = getelementptr inbounds nuw %struct.VP8LHistogram, ptr %117, i32 0, i32 1
  %119 = getelementptr inbounds [256 x i32], ptr %118, i64 0, i64 0
  %120 = load ptr, ptr %6, align 8, !tbaa !3
  %121 = getelementptr inbounds nuw %struct.VP8LHistogram, ptr %120, i32 0, i32 11
  %122 = getelementptr inbounds [5 x i8], ptr %121, i64 0, i64 1
  %123 = load i8, ptr %122, align 1, !tbaa !43
  %124 = zext i8 %123 to i32
  %125 = load ptr, ptr %7, align 8, !tbaa !3
  %126 = getelementptr inbounds nuw %struct.VP8LHistogram, ptr %125, i32 0, i32 11
  %127 = getelementptr inbounds [5 x i8], ptr %126, i64 0, i64 1
  %128 = load i8, ptr %127, align 1, !tbaa !43
  %129 = zext i8 %128 to i32
  %130 = load i32, ptr %11, align 4, !tbaa !14
  %131 = call i64 @GetCombinedEntropy(ptr noundef %116, ptr noundef %119, i32 noundef 256, i32 noundef %124, i32 noundef %129, i32 noundef %130)
  %132 = load ptr, ptr %9, align 8, !tbaa !110
  %133 = load i64, ptr %132, align 8, !tbaa !30
  %134 = add i64 %133, %131
  store i64 %134, ptr %132, align 8, !tbaa !30
  %135 = load ptr, ptr %9, align 8, !tbaa !110
  %136 = load i64, ptr %135, align 8, !tbaa !30
  %137 = load i64, ptr %12, align 8, !tbaa !30
  %138 = icmp uge i64 %136, %137
  br i1 %138, label %139, label %140

139:                                              ; preds = %113
  store i32 0, ptr %5, align 4
  store i32 1, ptr %13, align 4
  br label %234

140:                                              ; preds = %113
  %141 = load ptr, ptr %6, align 8, !tbaa !3
  %142 = getelementptr inbounds nuw %struct.VP8LHistogram, ptr %141, i32 0, i32 2
  %143 = getelementptr inbounds [256 x i32], ptr %142, i64 0, i64 0
  %144 = load ptr, ptr %7, align 8, !tbaa !3
  %145 = getelementptr inbounds nuw %struct.VP8LHistogram, ptr %144, i32 0, i32 2
  %146 = getelementptr inbounds [256 x i32], ptr %145, i64 0, i64 0
  %147 = load ptr, ptr %6, align 8, !tbaa !3
  %148 = getelementptr inbounds nuw %struct.VP8LHistogram, ptr %147, i32 0, i32 11
  %149 = getelementptr inbounds [5 x i8], ptr %148, i64 0, i64 2
  %150 = load i8, ptr %149, align 2, !tbaa !43
  %151 = zext i8 %150 to i32
  %152 = load ptr, ptr %7, align 8, !tbaa !3
  %153 = getelementptr inbounds nuw %struct.VP8LHistogram, ptr %152, i32 0, i32 11
  %154 = getelementptr inbounds [5 x i8], ptr %153, i64 0, i64 2
  %155 = load i8, ptr %154, align 2, !tbaa !43
  %156 = zext i8 %155 to i32
  %157 = load i32, ptr %11, align 4, !tbaa !14
  %158 = call i64 @GetCombinedEntropy(ptr noundef %143, ptr noundef %146, i32 noundef 256, i32 noundef %151, i32 noundef %156, i32 noundef %157)
  %159 = load ptr, ptr %9, align 8, !tbaa !110
  %160 = load i64, ptr %159, align 8, !tbaa !30
  %161 = add i64 %160, %158
  store i64 %161, ptr %159, align 8, !tbaa !30
  %162 = load ptr, ptr %9, align 8, !tbaa !110
  %163 = load i64, ptr %162, align 8, !tbaa !30
  %164 = load i64, ptr %12, align 8, !tbaa !30
  %165 = icmp uge i64 %163, %164
  br i1 %165, label %166, label %167

166:                                              ; preds = %140
  store i32 0, ptr %5, align 4
  store i32 1, ptr %13, align 4
  br label %234

167:                                              ; preds = %140
  %168 = load ptr, ptr %6, align 8, !tbaa !3
  %169 = getelementptr inbounds nuw %struct.VP8LHistogram, ptr %168, i32 0, i32 3
  %170 = getelementptr inbounds [256 x i32], ptr %169, i64 0, i64 0
  %171 = load ptr, ptr %7, align 8, !tbaa !3
  %172 = getelementptr inbounds nuw %struct.VP8LHistogram, ptr %171, i32 0, i32 3
  %173 = getelementptr inbounds [256 x i32], ptr %172, i64 0, i64 0
  %174 = load ptr, ptr %6, align 8, !tbaa !3
  %175 = getelementptr inbounds nuw %struct.VP8LHistogram, ptr %174, i32 0, i32 11
  %176 = getelementptr inbounds [5 x i8], ptr %175, i64 0, i64 3
  %177 = load i8, ptr %176, align 1, !tbaa !43
  %178 = zext i8 %177 to i32
  %179 = load ptr, ptr %7, align 8, !tbaa !3
  %180 = getelementptr inbounds nuw %struct.VP8LHistogram, ptr %179, i32 0, i32 11
  %181 = getelementptr inbounds [5 x i8], ptr %180, i64 0, i64 3
  %182 = load i8, ptr %181, align 1, !tbaa !43
  %183 = zext i8 %182 to i32
  %184 = load i32, ptr %11, align 4, !tbaa !14
  %185 = call i64 @GetCombinedEntropy(ptr noundef %170, ptr noundef %173, i32 noundef 256, i32 noundef %178, i32 noundef %183, i32 noundef %184)
  %186 = load ptr, ptr %9, align 8, !tbaa !110
  %187 = load i64, ptr %186, align 8, !tbaa !30
  %188 = add i64 %187, %185
  store i64 %188, ptr %186, align 8, !tbaa !30
  %189 = load ptr, ptr %9, align 8, !tbaa !110
  %190 = load i64, ptr %189, align 8, !tbaa !30
  %191 = load i64, ptr %12, align 8, !tbaa !30
  %192 = icmp uge i64 %190, %191
  br i1 %192, label %193, label %194

193:                                              ; preds = %167
  store i32 0, ptr %5, align 4
  store i32 1, ptr %13, align 4
  br label %234

194:                                              ; preds = %167
  %195 = load ptr, ptr %6, align 8, !tbaa !3
  %196 = getelementptr inbounds nuw %struct.VP8LHistogram, ptr %195, i32 0, i32 4
  %197 = getelementptr inbounds [40 x i32], ptr %196, i64 0, i64 0
  %198 = load ptr, ptr %7, align 8, !tbaa !3
  %199 = getelementptr inbounds nuw %struct.VP8LHistogram, ptr %198, i32 0, i32 4
  %200 = getelementptr inbounds [40 x i32], ptr %199, i64 0, i64 0
  %201 = load ptr, ptr %6, align 8, !tbaa !3
  %202 = getelementptr inbounds nuw %struct.VP8LHistogram, ptr %201, i32 0, i32 11
  %203 = getelementptr inbounds [5 x i8], ptr %202, i64 0, i64 4
  %204 = load i8, ptr %203, align 4, !tbaa !43
  %205 = zext i8 %204 to i32
  %206 = load ptr, ptr %7, align 8, !tbaa !3
  %207 = getelementptr inbounds nuw %struct.VP8LHistogram, ptr %206, i32 0, i32 11
  %208 = getelementptr inbounds [5 x i8], ptr %207, i64 0, i64 4
  %209 = load i8, ptr %208, align 4, !tbaa !43
  %210 = zext i8 %209 to i32
  %211 = call i64 @GetCombinedEntropy(ptr noundef %197, ptr noundef %200, i32 noundef 40, i32 noundef %205, i32 noundef %210, i32 noundef 0)
  %212 = load ptr, ptr %9, align 8, !tbaa !110
  %213 = load i64, ptr %212, align 8, !tbaa !30
  %214 = add i64 %213, %211
  store i64 %214, ptr %212, align 8, !tbaa !30
  %215 = load ptr, ptr @VP8LExtraCostCombined, align 8, !tbaa !3
  %216 = load ptr, ptr %6, align 8, !tbaa !3
  %217 = getelementptr inbounds nuw %struct.VP8LHistogram, ptr %216, i32 0, i32 4
  %218 = getelementptr inbounds [40 x i32], ptr %217, i64 0, i64 0
  %219 = load ptr, ptr %7, align 8, !tbaa !3
  %220 = getelementptr inbounds nuw %struct.VP8LHistogram, ptr %219, i32 0, i32 4
  %221 = getelementptr inbounds [40 x i32], ptr %220, i64 0, i64 0
  %222 = call i32 %215(ptr noundef %218, ptr noundef %221, i32 noundef 40)
  %223 = zext i32 %222 to i64
  %224 = shl i64 %223, 23
  %225 = load ptr, ptr %9, align 8, !tbaa !110
  %226 = load i64, ptr %225, align 8, !tbaa !30
  %227 = add i64 %226, %224
  store i64 %227, ptr %225, align 8, !tbaa !30
  %228 = load ptr, ptr %9, align 8, !tbaa !110
  %229 = load i64, ptr %228, align 8, !tbaa !30
  %230 = load i64, ptr %12, align 8, !tbaa !30
  %231 = icmp uge i64 %229, %230
  br i1 %231, label %232, label %233

232:                                              ; preds = %194
  store i32 0, ptr %5, align 4
  store i32 1, ptr %13, align 4
  br label %234

233:                                              ; preds = %194
  store i32 1, ptr %5, align 4
  store i32 1, ptr %13, align 4
  br label %234

234:                                              ; preds = %233, %232, %193, %166, %139, %64, %23
  call void @llvm.lifetime.end.p0(i64 8, ptr %12) #7
  call void @llvm.lifetime.end.p0(i64 4, ptr %11) #7
  call void @llvm.lifetime.end.p0(i64 4, ptr %10) #7
  %235 = load i32, ptr %5, align 4
  ret i32 %235
}