; Function Attrs: nounwind uwtable
define internal fastcc range(i32 0, 2) i32 @GetCombinedHistogramEntropy(ptr noundef %0, ptr noundef %1, i64 noundef %2, ptr noundef captures(none) %3) unnamed_addr #0 {
  %5 = icmp slt i64 %2, 1
  br i1 %5, label %100, label %6

6:                                                ; preds = %4
  %7 = getelementptr inbounds nuw i8, ptr %0, i64 3240
  %8 = load i32, ptr %7, align 8, !tbaa !24
  %9 = load ptr, ptr %0, align 8, !tbaa !18
  %10 = load ptr, ptr %1, align 8, !tbaa !18
  %11 = icmp sgt i32 %8, 0
  %12 = shl nuw i32 1, %8
  %13 = add nuw nsw i32 %12, 280
  %14 = select i1 %11, i32 %13, i32 280
  %15 = getelementptr inbounds nuw i8, ptr %0, i64 3280
  %16 = load i8, ptr %15, align 8, !tbaa !23
  %17 = zext i8 %16 to i32
  %18 = getelementptr inbounds nuw i8, ptr %1, i64 3280
  %19 = load i8, ptr %18, align 8, !tbaa !23
  %20 = zext i8 %19 to i32
  %21 = tail call fastcc i64 @GetCombinedEntropy(ptr noundef %9, ptr noundef %10, i32 noundef %14, i32 noundef %17, i32 noundef %20, i32 noundef 0)
  store i64 %21, ptr %3, align 8, !tbaa !54
  %22 = load ptr, ptr @VP8LExtraCostCombined, align 8, !tbaa !29
  %23 = load ptr, ptr %0, align 8, !tbaa !18
  %24 = getelementptr inbounds nuw i8, ptr %23, i64 1024
  %25 = load ptr, ptr %1, align 8, !tbaa !18
  %26 = getelementptr inbounds nuw i8, ptr %25, i64 1024
  %27 = tail call i32 %22(ptr noundef nonnull %24, ptr noundef nonnull %26, i32 noundef 24) #10
  %28 = zext i32 %27 to i64
  %29 = shl nuw nsw i64 %28, 23
  %30 = load i64, ptr %3, align 8, !tbaa !54
  %31 = add i64 %29, %30
  store i64 %31, ptr %3, align 8, !tbaa !54
  %.not = icmp ult i64 %31, %2
  br i1 %.not, label %32, label %100

32:                                               ; preds = %6
  %33 = getelementptr inbounds nuw i8, ptr %0, i64 3244
  %34 = load i32, ptr %33, align 4, !tbaa !53
  %.not68 = icmp eq i32 %34, -1
  br i1 %.not68, label %46, label %35

35:                                               ; preds = %32
  %36 = getelementptr inbounds nuw i8, ptr %1, i64 3244
  %37 = load i32, ptr %36, align 4, !tbaa !53
  %38 = icmp eq i32 %34, %37
  br i1 %38, label %39, label %46

39:                                               ; preds = %35
  %40 = and i32 %34, 255
  %41 = add i32 %34, 16777216
  %or.cond = icmp ult i32 %41, 33554432
  br i1 %or.cond, label %42, label %46

42:                                               ; preds = %39
  %43 = lshr i32 %34, 16
  %trunc = trunc i32 %43 to i8
  switch i8 %trunc, label %46 [
    i8 -1, label %44
    i8 0, label %44
  ]

44:                                               ; preds = %42, %42
  %switch.selectcmp.case1 = icmp eq i32 %40, 255
  %switch.selectcmp.case2 = icmp eq i32 %40, 0
  %switch.selectcmp = or i1 %switch.selectcmp.case1, %switch.selectcmp.case2
  %45 = zext i1 %switch.selectcmp to i32
  br label %46

46:                                               ; preds = %44, %39, %42, %35, %32
  %.065 = phi i32 [ 0, %35 ], [ 0, %32 ], [ 0, %42 ], [ 0, %39 ], [ %45, %44 ]
  %47 = getelementptr inbounds nuw i8, ptr %0, i64 8
  %48 = getelementptr inbounds nuw i8, ptr %1, i64 8
  %49 = getelementptr inbounds nuw i8, ptr %0, i64 3281
  %50 = load i8, ptr %49, align 1, !tbaa !23
  %51 = zext i8 %50 to i32
  %52 = getelementptr inbounds nuw i8, ptr %1, i64 3281
  %53 = load i8, ptr %52, align 1, !tbaa !23
  %54 = zext i8 %53 to i32
  %55 = tail call fastcc i64 @GetCombinedEntropy(ptr noundef nonnull %47, ptr noundef nonnull %48, i32 noundef 256, i32 noundef %51, i32 noundef %54, i32 noundef %.065)
  %56 = load i64, ptr %3, align 8, !tbaa !54
  %57 = add i64 %56, %55
  store i64 %57, ptr %3, align 8, !tbaa !54
  %.not69 = icmp ult i64 %57, %2
  br i1 %.not69, label %58, label %100

58:                                               ; preds = %46
  %59 = getelementptr inbounds nuw i8, ptr %0, i64 1032
  %60 = getelementptr inbounds nuw i8, ptr %1, i64 1032
  %61 = getelementptr inbounds nuw i8, ptr %0, i64 3282
  %62 = load i8, ptr %61, align 2, !tbaa !23
  %63 = zext i8 %62 to i32
  %64 = getelementptr inbounds nuw i8, ptr %1, i64 3282
  %65 = load i8, ptr %64, align 2, !tbaa !23
  %66 = zext i8 %65 to i32
  %67 = tail call fastcc i64 @GetCombinedEntropy(ptr noundef nonnull %59, ptr noundef nonnull %60, i32 noundef 256, i32 noundef %63, i32 noundef %66, i32 noundef %.065)
  %68 = load i64, ptr %3, align 8, !tbaa !54
  %69 = add i64 %68, %67
  store i64 %69, ptr %3, align 8, !tbaa !54
  %.not70 = icmp ult i64 %69, %2
  br i1 %.not70, label %70, label %100

70:                                               ; preds = %58
  %71 = getelementptr inbounds nuw i8, ptr %0, i64 2056
  %72 = getelementptr inbounds nuw i8, ptr %1, i64 2056
  %73 = getelementptr inbounds nuw i8, ptr %0, i64 3283
  %74 = load i8, ptr %73, align 1, !tbaa !23
  %75 = zext i8 %74 to i32
  %76 = getelementptr inbounds nuw i8, ptr %1, i64 3283
  %77 = load i8, ptr %76, align 1, !tbaa !23
  %78 = zext i8 %77 to i32
  %79 = tail call fastcc i64 @GetCombinedEntropy(ptr noundef nonnull %71, ptr noundef nonnull %72, i32 noundef 256, i32 noundef %75, i32 noundef %78, i32 noundef %.065)
  %80 = load i64, ptr %3, align 8, !tbaa !54
  %81 = add i64 %80, %79
  store i64 %81, ptr %3, align 8, !tbaa !54
  %.not71 = icmp ult i64 %81, %2
  br i1 %.not71, label %82, label %100

82:                                               ; preds = %70
  %83 = getelementptr inbounds nuw i8, ptr %0, i64 3080
  %84 = getelementptr inbounds nuw i8, ptr %1, i64 3080
  %85 = getelementptr inbounds nuw i8, ptr %0, i64 3284
  %86 = load i8, ptr %85, align 4, !tbaa !23
  %87 = zext i8 %86 to i32
  %88 = getelementptr inbounds nuw i8, ptr %1, i64 3284
  %89 = load i8, ptr %88, align 4, !tbaa !23
  %90 = zext i8 %89 to i32
  %91 = tail call fastcc i64 @GetCombinedEntropy(ptr noundef nonnull %83, ptr noundef nonnull %84, i32 noundef 40, i32 noundef %87, i32 noundef %90, i32 noundef 0)
  %92 = load i64, ptr %3, align 8, !tbaa !54
  %93 = add i64 %92, %91
  store i64 %93, ptr %3, align 8, !tbaa !54
  %94 = load ptr, ptr @VP8LExtraCostCombined, align 8, !tbaa !29
  %95 = tail call i32 %94(ptr noundef nonnull %83, ptr noundef nonnull %84, i32 noundef 40) #10
  %96 = zext i32 %95 to i64
  %97 = shl nuw nsw i64 %96, 23
  %98 = load i64, ptr %3, align 8, !tbaa !54
  %99 = add i64 %97, %98
  store i64 %99, ptr %3, align 8, !tbaa !54
  %.not72 = icmp ult i64 %99, %2
  %. = zext i1 %.not72 to i32
  br label %100

100:                                              ; preds = %82, %70, %58, %46, %6, %4
  %.0 = phi i32 [ 0, %4 ], [ 0, %6 ], [ 0, %46 ], [ 0, %58 ], [ 0, %70 ], [ %., %82 ]
  ret i32 %.0
}